; Function Attrs: mustprogress nofree norecurse nosync nounwind willreturn memory(read, argmem: readwrite, inaccessiblemem: none) uwtable
define hidden void @_ZN5State15_sub_Op_OrVMaskEPK4Node(ptr nocapture noundef nonnull align 8 dereferenceable(1920) %0, ptr nocapture readnone %1) local_unnamed_addr #1 align 2 {
  %3 = getelementptr inbounds i8, ptr %0, i64 1904
  %4 = load ptr, ptr %3, align 8
  %.not = icmp eq ptr %4, null
  br i1 %.not, label %25, label %5

5:                                                ; preds = %2
  %6 = getelementptr inbounds i8, ptr %4, i64 1356
  %7 = load i16, ptr %6, align 4
  %8 = and i16 %7, 1
  %.not2 = icmp eq i16 %8, 0
  br i1 %.not2, label %25, label %9

9:                                                ; preds = %5
  %10 = getelementptr inbounds i8, ptr %0, i64 1912
  %11 = load ptr, ptr %10, align 8
  %.not3 = icmp eq ptr %11, null
  br i1 %.not3, label %25, label %12

12:                                               ; preds = %9
  %13 = getelementptr inbounds i8, ptr %11, i64 1356
  %14 = load i16, ptr %13, align 4
  %15 = and i16 %14, 1
  %.not4 = icmp eq i16 %15, 0
  br i1 %.not4, label %25, label %16

16:                                               ; preds = %12
  %17 = getelementptr inbounds i8, ptr %4, i64 192
  %18 = load i32, ptr %17, align 8
  %19 = getelementptr inbounds i8, ptr %11, i64 192
  %20 = load i32, ptr %19, align 8
  %21 = add i32 %18, 100
  %22 = add i32 %21, %20
  %23 = getelementptr inbounds i8, ptr %0, i64 192
  store i32 %22, ptr %23, align 8
  %24 = getelementptr inbounds i8, ptr %0, i64 1356
  store i16 3305, ptr %24, align 4
  br label %25

25:                                               ; preds = %16, %12, %9, %5, %2
  ret void
}